; Function Attrs: nounwind uwtable
define internal void @dirac_parse_close(ptr noundef readonly captures(none) %0) #0 {
  %2 = load ptr, ptr %0, align 8, !tbaa !4
  %3 = getelementptr inbounds nuw i8, ptr %2, i64 20
  %4 = load i32, ptr %3, align 4, !tbaa !53
  %5 = icmp sgt i32 %4, 0
  br i1 %5, label %6, label %8

6:                                                ; preds = %1
  %7 = getelementptr inbounds nuw i8, ptr %2, i64 32
  tail call void @av_freep(ptr noundef nonnull %7) #4
  br label %8

8:                                                ; preds = %6, %1
  ret void
}